; Function Attrs: nounwind uwtable
define internal fastcc range(i32 -1, 1) i32 @H5C__unpin_entry_from_client(ptr noundef captures(none) %0, ptr noundef %1, i1 noundef zeroext %2) unnamed_addr #0 {
  %4 = load i8, ptr @H5C_init_g, align 1, !tbaa !3, !range !7, !noundef !8
  %5 = trunc nuw i8 %4 to i1
  %6 = load i8, ptr @H5_libterm_g, align 1, !range !7
  %7 = trunc nuw i8 %6 to i1
  %8 = xor i1 %7, true
  %9 = select i1 %5, i1 true, i1 %8
  br i1 %9, label %10, label %84, !prof !9

10:                                               ; preds = %3
  %11 = getelementptr inbounds nuw i8, ptr %1, i64 56
  %12 = load i8, ptr %11, align 8, !tbaa !102, !range !7, !noundef !8
  %13 = trunc nuw i8 %12 to i1
  br i1 %13, label %18, label %14

14:                                               ; preds = %10
  %15 = load i64, ptr @H5E_CACHE_g, align 8, !tbaa !59
  %16 = load i64, ptr @H5E_CANTUNPIN_g, align 8, !tbaa !59
  %17 = tail call i32 (ptr, ptr, i32, i64, i64, ptr, ...) @H5E_printf_stack(ptr noundef nonnull @.str, ptr noundef nonnull @__func__.H5C__unpin_entry_from_client, i32 noundef 208, i64 noundef %15, i64 noundef %16, ptr noundef nonnull @.str.105) #9
  br label %84

18:                                               ; preds = %10
  %19 = getelementptr inbounds nuw i8, ptr %1, i64 100
  %20 = load i8, ptr %19, align 4, !tbaa !131, !range !7, !noundef !8
  %21 = trunc nuw i8 %20 to i1
  br i1 %21, label %26, label %22

22:                                               ; preds = %18
  %23 = load i64, ptr @H5E_CACHE_g, align 8, !tbaa !59
  %24 = load i64, ptr @H5E_CANTUNPIN_g, align 8, !tbaa !59
  %25 = tail call i32 (ptr, ptr, i32, i64, i64, ptr, ...) @H5E_printf_stack(ptr noundef nonnull @.str, ptr noundef nonnull @__func__.H5C__unpin_entry_from_client, i32 noundef 210, i64 noundef %23, i64 noundef %24, ptr noundef nonnull @.str.106) #9
  br label %84

26:                                               ; preds = %18
  %27 = getelementptr inbounds nuw i8, ptr %1, i64 101
  %28 = load i8, ptr %27, align 1, !tbaa !132, !range !7, !noundef !8
  %29 = trunc nuw i8 %28 to i1
  br i1 %29, label %83, label %30

30:                                               ; preds = %26
  br i1 %2, label %31, label %H5C__unpin_entry_real.exit

31:                                               ; preds = %30
  %32 = getelementptr inbounds nuw i8, ptr %1, i64 50
  %33 = load i8, ptr %32, align 2, !tbaa !58, !range !7, !noundef !8
  %34 = trunc nuw i8 %33 to i1
  br i1 %34, label %H5C__unpin_entry_real.exit, label %35

35:                                               ; preds = %31
  %36 = getelementptr inbounds nuw i8, ptr %0, i64 524792
  %37 = load ptr, ptr %36, align 8, !tbaa !146
  %38 = icmp eq ptr %37, %1
  %39 = getelementptr inbounds nuw i8, ptr %1, i64 136
  %40 = load ptr, ptr %39, align 8, !tbaa !97
  br i1 %38, label %41, label %44

41:                                               ; preds = %35
  store ptr %40, ptr %36, align 8, !tbaa !146
  %.not.i = icmp eq ptr %40, null
  br i1 %.not.i, label %48, label %42

42:                                               ; preds = %41
  %43 = getelementptr inbounds nuw i8, ptr %40, i64 144
  store ptr null, ptr %43, align 8, !tbaa !98
  br label %48

44:                                               ; preds = %35
  %45 = getelementptr inbounds nuw i8, ptr %1, i64 144
  %46 = load ptr, ptr %45, align 8, !tbaa !98
  %47 = getelementptr inbounds nuw i8, ptr %46, i64 136
  store ptr %40, ptr %47, align 8, !tbaa !97
  br label %48

48:                                               ; preds = %44, %42, %41
  %49 = phi ptr [ null, %41 ], [ %40, %42 ], [ %40, %44 ]
  %50 = getelementptr inbounds nuw i8, ptr %0, i64 524800
  %51 = load ptr, ptr %50, align 8, !tbaa !147
  %52 = icmp eq ptr %51, %1
  %53 = getelementptr inbounds nuw i8, ptr %1, i64 144
  %54 = load ptr, ptr %53, align 8, !tbaa !98
  br i1 %52, label %55, label %58

55:                                               ; preds = %48
  store ptr %54, ptr %50, align 8, !tbaa !147
  %.not41.i = icmp eq ptr %54, null
  br i1 %.not41.i, label %60, label %56

56:                                               ; preds = %55
  %57 = getelementptr inbounds nuw i8, ptr %54, i64 136
  store ptr null, ptr %57, align 8, !tbaa !97
  br label %60

58:                                               ; preds = %48
  %59 = getelementptr inbounds nuw i8, ptr %49, i64 144
  store ptr %54, ptr %59, align 8, !tbaa !98
  br label %60

60:                                               ; preds = %58, %56, %55
  %61 = getelementptr inbounds nuw i8, ptr %0, i64 524776
  tail call void @llvm.memset.p0.i64(ptr noundef nonnull align 8 dereferenceable(16) %39, i8 0, i64 16, i1 false)
  %62 = load i32, ptr %61, align 8, !tbaa !183
  %63 = add i32 %62, -1
  store i32 %63, ptr %61, align 8, !tbaa !183
  %64 = getelementptr inbounds nuw i8, ptr %1, i64 16
  %65 = load i64, ptr %64, align 8, !tbaa !62
  %66 = getelementptr inbounds nuw i8, ptr %0, i64 524784
  %67 = load i64, ptr %66, align 8, !tbaa !153
  %68 = sub i64 %67, %65
  store i64 %68, ptr %66, align 8, !tbaa !153
  %69 = getelementptr inbounds nuw i8, ptr %0, i64 524824
  %70 = load ptr, ptr %69, align 8, !tbaa !96
  %71 = icmp eq ptr %70, null
  br i1 %71, label %72, label %74

72:                                               ; preds = %60
  %73 = getelementptr inbounds nuw i8, ptr %0, i64 524832
  store ptr %1, ptr %73, align 8, !tbaa !99
  br label %76

74:                                               ; preds = %60
  %75 = getelementptr inbounds nuw i8, ptr %70, i64 144
  store ptr %1, ptr %75, align 8, !tbaa !98
  store ptr %70, ptr %39, align 8, !tbaa !97
  br label %76

76:                                               ; preds = %74, %72
  store ptr %1, ptr %69, align 8, !tbaa !96
  %77 = getelementptr inbounds nuw i8, ptr %0, i64 524808
  %78 = load i32, ptr %77, align 8, !tbaa !100
  %79 = add i32 %78, 1
  store i32 %79, ptr %77, align 8, !tbaa !100
  %80 = getelementptr inbounds nuw i8, ptr %0, i64 524816
  %81 = load i64, ptr %80, align 8, !tbaa !101
  %82 = add i64 %81, %65
  store i64 %82, ptr %80, align 8, !tbaa !101
  br label %H5C__unpin_entry_real.exit

H5C__unpin_entry_real.exit:                       ; preds = %30, %31, %76
  store i8 0, ptr %11, align 8, !tbaa !102
  br label %83

83:                                               ; preds = %H5C__unpin_entry_real.exit, %26
  store i8 0, ptr %19, align 4, !tbaa !131
  br label %84

84:                                               ; preds = %14, %22, %83, %3
  %.0 = phi i32 [ 0, %83 ], [ -1, %22 ], [ -1, %14 ], [ 0, %3 ]
  ret i32 %.0
}